target datalayout = "e-m:e-p270:32:32-p271:32:32-p272:64:64-i64:64-i128:128-f80:128-n8:16:32:64-S128"
target triple = "x86_64-pc-linux-gnu"

%"class.icu_77::SimpleLocaleKeyFactory" = type <{ %"class.icu_77::LocaleKeyFactory.base", [4 x i8], ptr, %"class.icu_77::UnicodeString", i32, [4 x i8] }>
%"class.icu_77::LocaleKeyFactory.base" = type <{ %"class.icu_77::ICUServiceFactory", %"class.icu_77::UnicodeString", i32 }>
%"class.icu_77::ICUServiceFactory" = type { %"class.icu_77::UObject" }
%"class.icu_77::UObject" = type { ptr }
%"class.icu_77::UnicodeString" = type { %"class.icu_77::Replaceable", %"union.icu_77::UnicodeString::StackBufferOrFields" }
%"class.icu_77::Replaceable" = type { %"class.icu_77::UObject" }
%"union.icu_77::UnicodeString::StackBufferOrFields" = type { %struct.anon.0, [32 x i8] }
%struct.anon.0 = type { i16, i32, i32, ptr }

; Function Attrs: mustprogress uwtable
define void @_ZN6icu_7722SimpleLocaleKeyFactoryC2EPNS_7UObjectERKNS_13UnicodeStringEii(ptr noundef nonnull align 8 dereferenceable(156) %0, ptr noundef %1, ptr noundef nonnull align 8 dereferenceable(64) %2, i32 noundef %3, i32 noundef %4) unnamed_addr #1 align 2 personality ptr @__gxx_personality_v0 {
  %6 = alloca ptr, align 8
  %7 = alloca ptr, align 8
  %8 = alloca ptr, align 8
  %9 = alloca i32, align 4
  %10 = alloca i32, align 4
  %11 = alloca ptr, align 8
  %12 = alloca i32, align 4
  store ptr %0, ptr %6, align 8, !tbaa !23
  store ptr %1, ptr %7, align 8, !tbaa !25
  store ptr %2, ptr %8, align 8, !tbaa !27
  store i32 %3, ptr %9, align 4, !tbaa !14
  store i32 %4, ptr %10, align 4, !tbaa !14
  %13 = load ptr, ptr %6, align 8
  %14 = load i32, ptr %10, align 4, !tbaa !14
  call void @_ZN6icu_7716LocaleKeyFactoryC2Ei(ptr noundef nonnull align 8 dereferenceable(76) %13, i32 noundef %14)
  store ptr getelementptr inbounds inrange(-16, 72) ({ [11 x ptr] }, ptr @_ZTVN6icu_7722SimpleLocaleKeyFactoryE, i32 0, i32 0, i32 2), ptr %13, align 8, !tbaa !29
  %15 = getelementptr inbounds nuw %"class.icu_77::SimpleLocaleKeyFactory", ptr %13, i32 0, i32 2
  %16 = load ptr, ptr %7, align 8, !tbaa !25
  store ptr %16, ptr %15, align 8, !tbaa !31
  %17 = getelementptr inbounds nuw %"class.icu_77::SimpleLocaleKeyFactory", ptr %13, i32 0, i32 3
  %18 = load ptr, ptr %8, align 8, !tbaa !27
  invoke void @_ZN6icu_7713UnicodeStringC1ERKS0_(ptr noundef nonnull align 8 dereferenceable(64) %17, ptr noundef nonnull align 8 dereferenceable(64) %18)
          to label %19 unwind label %22

19:                                               ; preds = %5
  %20 = getelementptr inbounds nuw %"class.icu_77::SimpleLocaleKeyFactory", ptr %13, i32 0, i32 4
  %21 = load i32, ptr %9, align 4, !tbaa !14
  store i32 %21, ptr %20, align 8, !tbaa !38
  ret void

22:                                               ; preds = %5
  %23 = landingpad { ptr, i32 }
          cleanup
  %24 = extractvalue { ptr, i32 } %23, 0
  store ptr %24, ptr %11, align 8
  %25 = extractvalue { ptr, i32 } %23, 1
  store i32 %25, ptr %12, align 4
  call void @_ZN6icu_7716LocaleKeyFactoryD2Ev(ptr noundef nonnull align 8 dereferenceable(76) %13) #10
  br label %26

26:                                               ; preds = %22
  %27 = load ptr, ptr %11, align 8
  %28 = load i32, ptr %12, align 4
  %29 = insertvalue { ptr, i32 } poison, ptr %27, 0
  %30 = insertvalue { ptr, i32 } %29, i32 %28, 1
  resume { ptr, i32 } %30
}